; Function Attrs: nounwind uwtable
define i64 @BIO_callback_ctrl(ptr noundef %0, i32 noundef %1, ptr noundef %2) local_unnamed_addr #0 {
  %4 = alloca ptr, align 8
  store ptr %2, ptr %4, align 8, !tbaa !54
  %5 = icmp eq ptr %0, null
  br i1 %5, label %bio_call_callback.exit30, label %6

6:                                                ; preds = %3
  %7 = getelementptr inbounds nuw i8, ptr %0, i64 8
  %8 = load ptr, ptr %7, align 8, !tbaa !17
  %9 = icmp eq ptr %8, null
  br i1 %9, label %15, label %10

10:                                               ; preds = %6
  %11 = getelementptr inbounds nuw i8, ptr %8, i64 88
  %12 = load ptr, ptr %11, align 8, !tbaa !55
  %13 = icmp eq ptr %12, null
  %14 = icmp ne i32 %1, 14
  %or.cond = or i1 %14, %13
  br i1 %or.cond, label %15, label %16

15:                                               ; preds = %10, %6
  tail call void @ERR_new() #14
  tail call void @ERR_set_debug(ptr noundef nonnull @.str, i32 noundef 694, ptr noundef nonnull @__func__.BIO_callback_ctrl) #14
  tail call void (i32, i32, ptr, ...) @ERR_set_error(i32 noundef 32, i32 noundef 121, ptr noundef null) #14
  br label %bio_call_callback.exit30

16:                                               ; preds = %10
  %17 = getelementptr inbounds nuw i8, ptr %0, i64 16
  %18 = load ptr, ptr %17, align 8, !tbaa !23
  %.not = icmp eq ptr %18, null
  %19 = getelementptr inbounds nuw i8, ptr %0, i64 24
  %20 = load ptr, ptr %19, align 8, !tbaa !24
  %.not25 = icmp eq ptr %20, null
  br i1 %.not, label %21, label %22

21:                                               ; preds = %16
  br i1 %.not25, label %27, label %.thread

22:                                               ; preds = %16
  br i1 %.not25, label %24, label %.thread

.thread:                                          ; preds = %21, %22
  %23 = call i64 %20(ptr noundef nonnull %0, i32 noundef 6, ptr noundef nonnull %4, i64 noundef 0, i32 noundef 14, i64 noundef 0, i32 noundef 1, ptr noundef null) #14
  br label %bio_call_callback.exit

24:                                               ; preds = %22
  %25 = call i64 %18(ptr noundef nonnull %0, i32 noundef 6, ptr noundef nonnull %4, i32 noundef 14, i64 noundef 0, i64 noundef 1) #14
  br label %bio_call_callback.exit

bio_call_callback.exit:                           ; preds = %24, %.thread
  %.0.i = phi i64 [ %23, %.thread ], [ %25, %24 ]
  %26 = icmp slt i64 %.0.i, 1
  br i1 %26, label %bio_call_callback.exit30, label %bio_call_callback.exit._crit_edge

bio_call_callback.exit._crit_edge:                ; preds = %bio_call_callback.exit
  %.pre31 = load ptr, ptr %7, align 8, !tbaa !17
  %.phi.trans.insert32 = getelementptr inbounds nuw i8, ptr %.pre31, i64 88
  %.pre33 = load ptr, ptr %.phi.trans.insert32, align 8, !tbaa !55
  %.pre34 = load ptr, ptr %4, align 8, !tbaa !54
  br label %27

27:                                               ; preds = %bio_call_callback.exit._crit_edge, %21
  %28 = phi ptr [ %.pre34, %bio_call_callback.exit._crit_edge ], [ %2, %21 ]
  %29 = phi ptr [ %.pre33, %bio_call_callback.exit._crit_edge ], [ %12, %21 ]
  %30 = call i64 %29(ptr noundef nonnull %0, i32 noundef 14, ptr noundef %28) #14
  %31 = load ptr, ptr %17, align 8, !tbaa !23
  %.not26 = icmp eq ptr %31, null
  %32 = getelementptr inbounds nuw i8, ptr %0, i64 24
  %33 = load ptr, ptr %32, align 8, !tbaa !24
  %.not27 = icmp eq ptr %33, null
  br i1 %.not26, label %34, label %35

34:                                               ; preds = %27
  br i1 %.not27, label %bio_call_callback.exit30, label %.thread39

35:                                               ; preds = %27
  br i1 %.not27, label %38, label %.thread39

.thread39:                                        ; preds = %34, %35
  %36 = trunc i64 %30 to i32
  %37 = call i64 %33(ptr noundef nonnull %0, i32 noundef 134, ptr noundef nonnull %4, i64 noundef 0, i32 noundef 14, i64 noundef 0, i32 noundef %36, ptr noundef null) #14
  br label %bio_call_callback.exit30

38:                                               ; preds = %35
  %39 = call i64 %31(ptr noundef nonnull %0, i32 noundef 134, ptr noundef nonnull %4, i32 noundef 14, i64 noundef 0, i64 noundef %30) #14
  br label %bio_call_callback.exit30

bio_call_callback.exit30:                         ; preds = %38, %.thread39, %34, %bio_call_callback.exit, %3, %15
  %.020 = phi i64 [ -2, %15 ], [ -2, %3 ], [ %.0.i, %bio_call_callback.exit ], [ %30, %34 ], [ %37, %.thread39 ], [ %39, %38 ]
  ret i64 %.020
}